target datalayout = "e-m:e-p270:32:32-p271:32:32-p272:64:64-i64:64-i128:128-f80:128-n8:16:32:64-S128"
target triple = "x86_64-pc-linux-gnu"

%"class.icu_77::Replaceable" = type { %"class.icu_77::UObject" }
%"class.icu_77::UObject" = type { ptr }
%"class.icu_77::UnicodeString" = type { %"class.icu_77::Replaceable", %"union.icu_77::UnicodeString::StackBufferOrFields" }
%"union.icu_77::UnicodeString::StackBufferOrFields" = type { %struct.anon.0, [32 x i8] }
%struct.anon.0 = type { i16, i32, i32, ptr }
%struct.UParseError = type { i32, i32, [16 x i16], [16 x i16] }
%"class.icu_77::ConstChar16Ptr" = type { ptr }

; Function Attrs: inlinehint mustprogress nounwind uwtable
define linkonce_odr void @_ZN6icu_7714ConstChar16PtrD2Ev(ptr noundef nonnull align 8 dereferenceable(8) %0) unnamed_addr #2 comdat align 2 {
  %2 = alloca ptr, align 8
  store ptr %0, ptr %2, align 8, !tbaa !44
  %3 = load ptr, ptr %2, align 8
  %4 = getelementptr inbounds nuw %"class.icu_77::ConstChar16Ptr", ptr %3, i32 0, i32 0
  %5 = load ptr, ptr %4, align 8, !tbaa !46
  call void asm sideeffect "", "rm,~{memory},~{dirflag},~{fpsr},~{flags}"(ptr %5) #9, !srcloc !48
  ret void
}

; Function Attrs: inlinehint mustprogress nounwind uwtable
define linkonce_odr void @_ZN6icu_7714ConstChar16PtrC2EPKDs(ptr noundef nonnull align 8 dereferenceable(8) %0, ptr noundef %1) unnamed_addr #2 comdat align 2 {
  %3 = alloca ptr, align 8
  %4 = alloca ptr, align 8
  store ptr %0, ptr %3, align 8, !tbaa !44
  store ptr %1, ptr %4, align 8, !tbaa !33
  %5 = load ptr, ptr %3, align 8
  %6 = getelementptr inbounds nuw %"class.icu_77::ConstChar16Ptr", ptr %5, i32 0, i32 0
  %7 = load ptr, ptr %4, align 8, !tbaa !33
  store ptr %7, ptr %6, align 8, !tbaa !46
  ret void
}

; Function Attrs: inlinehint mustprogress nounwind uwtable
define internal noundef signext i8 @_ZL9U_FAILURE10UErrorCode(i32 noundef %0) #2 {
  %2 = alloca i32, align 4
  store i32 %0, ptr %2, align 4, !tbaa !40
  %3 = load i32, ptr %2, align 4, !tbaa !40
  %4 = icmp sgt i32 %3, 0
  %5 = zext i1 %4 to i8
  ret i8 %5
}

; Function Attrs: mustprogress uwtable
define ptr @utrans_openU_77(ptr noundef %0, i32 noundef %1, i32 noundef %2, ptr noundef %3, i32 noundef %4, ptr noundef %5, ptr noundef %6) #1 personality ptr @__gxx_personality_v0 {
  %8 = alloca ptr, align 8
  %9 = alloca ptr, align 8
  %10 = alloca i32, align 4
  %11 = alloca i32, align 4
  %12 = alloca ptr, align 8
  %13 = alloca i32, align 4
  %14 = alloca ptr, align 8
  %15 = alloca ptr, align 8
  %16 = alloca %struct.UParseError, align 4
  %17 = alloca %"class.icu_77::UnicodeString", align 8
  %18 = alloca %"class.icu_77::ConstChar16Ptr", align 8
  %19 = alloca ptr, align 8
  %20 = alloca i32, align 4
  %21 = alloca ptr, align 8
  %22 = alloca i32, align 4
  %23 = alloca %"class.icu_77::UnicodeString", align 8
  %24 = alloca %"class.icu_77::ConstChar16Ptr", align 8
  %25 = alloca ptr, align 8
  store ptr %0, ptr %9, align 8, !tbaa !33
  store i32 %1, ptr %10, align 4, !tbaa !23
  store i32 %2, ptr %11, align 4, !tbaa !35
  store ptr %3, ptr %12, align 8, !tbaa !33
  store i32 %4, ptr %13, align 4, !tbaa !23
  store ptr %5, ptr %14, align 8, !tbaa !37
  store ptr %6, ptr %15, align 8, !tbaa !39
  %26 = load ptr, ptr %15, align 8, !tbaa !39
  %27 = icmp eq ptr %26, null
  br i1 %27, label %33, label %28

28:                                               ; preds = %7
  %29 = load ptr, ptr %15, align 8, !tbaa !39
  %30 = load i32, ptr %29, align 4, !tbaa !40
  %31 = call noundef signext i8 @_ZL9U_FAILURE10UErrorCode(i32 noundef %30)
  %32 = icmp ne i8 %31, 0
  br i1 %32, label %33, label %34

33:                                               ; preds = %28, %7
  store ptr null, ptr %8, align 8
  br label %113

34:                                               ; preds = %28
  %35 = load ptr, ptr %9, align 8, !tbaa !33
  %36 = icmp eq ptr %35, null
  br i1 %36, label %37, label %39

37:                                               ; preds = %34
  %38 = load ptr, ptr %15, align 8, !tbaa !39
  store i32 1, ptr %38, align 4, !tbaa !40
  store ptr null, ptr %8, align 8
  br label %113

39:                                               ; preds = %34
  call void @llvm.lifetime.start.p0(i64 72, ptr %16) #9
  %40 = load ptr, ptr %14, align 8, !tbaa !37
  %41 = icmp eq ptr %40, null
  br i1 %41, label %42, label %43

42:                                               ; preds = %39
  store ptr %16, ptr %14, align 8, !tbaa !37
  br label %43

43:                                               ; preds = %42, %39
  call void @llvm.lifetime.start.p0(i64 64, ptr %17) #9
  %44 = load i32, ptr %10, align 4, !tbaa !23
  %45 = icmp slt i32 %44, 0
  %46 = zext i1 %45 to i8
  %47 = load ptr, ptr %9, align 8, !tbaa !33
  call void @_ZN6icu_7714ConstChar16PtrC2EPKDs(ptr noundef nonnull align 8 dereferenceable(8) %18, ptr noundef %47)
  %48 = load i32, ptr %10, align 4, !tbaa !23
  invoke void @_ZN6icu_7713UnicodeStringC1EaNS_14ConstChar16PtrEi(ptr noundef nonnull align 8 dereferenceable(64) %17, i8 noundef signext %46, ptr noundef %18, i32 noundef %48)
          to label %49 unwind label %64

49:                                               ; preds = %43
  call void @_ZN6icu_7714ConstChar16PtrD2Ev(ptr noundef nonnull align 8 dereferenceable(8) %18) #9
  %50 = load ptr, ptr %12, align 8, !tbaa !33
  %51 = icmp eq ptr %50, null
  br i1 %51, label %52, label %75

52:                                               ; preds = %49
  call void @llvm.lifetime.start.p0(i64 8, ptr %21) #9
  store ptr null, ptr %21, align 8, !tbaa !42
  %53 = load i32, ptr %11, align 4, !tbaa !35
  %54 = load ptr, ptr %14, align 8, !tbaa !37
  %55 = load ptr, ptr %15, align 8, !tbaa !39
  %56 = invoke noundef ptr @_ZN6icu_7714Transliterator14createInstanceERKNS_13UnicodeStringE15UTransDirectionR11UParseErrorR10UErrorCode(ptr noundef nonnull align 8 dereferenceable(64) %17, i32 noundef %53, ptr noundef nonnull align 4 dereferenceable(72) %54, ptr noundef nonnull align 4 dereferenceable(4) %55)
          to label %57 unwind label %68

57:                                               ; preds = %52
  store ptr %56, ptr %21, align 8, !tbaa !42
  %58 = load ptr, ptr %15, align 8, !tbaa !39
  %59 = load i32, ptr %58, align 4, !tbaa !40
  %60 = invoke noundef signext i8 @_ZL9U_FAILURE10UErrorCode(i32 noundef %59)
          to label %61 unwind label %68

61:                                               ; preds = %57
  %62 = icmp ne i8 %60, 0
  br i1 %62, label %63, label %72

63:                                               ; preds = %61
  store ptr null, ptr %8, align 8
  store i32 1, ptr %22, align 4
  br label %74

64:                                               ; preds = %43
  %65 = landingpad { ptr, i32 }
          cleanup
  %66 = extractvalue { ptr, i32 } %65, 0
  store ptr %66, ptr %19, align 8
  %67 = extractvalue { ptr, i32 } %65, 1
  store i32 %67, ptr %20, align 4
  call void @_ZN6icu_7714ConstChar16PtrD2Ev(ptr noundef nonnull align 8 dereferenceable(8) %18) #9
  br label %112

68:                                               ; preds = %57, %52
  %69 = landingpad { ptr, i32 }
          cleanup
  %70 = extractvalue { ptr, i32 } %69, 0
  store ptr %70, ptr %19, align 8
  %71 = extractvalue { ptr, i32 } %69, 1
  store i32 %71, ptr %20, align 4
  call void @llvm.lifetime.end.p0(i64 8, ptr %21) #9
  br label %111

72:                                               ; preds = %61
  %73 = load ptr, ptr %21, align 8, !tbaa !42
  store ptr %73, ptr %8, align 8
  store i32 1, ptr %22, align 4
  br label %74

74:                                               ; preds = %72, %63
  call void @llvm.lifetime.end.p0(i64 8, ptr %21) #9
  br label %110

75:                                               ; preds = %49
  call void @llvm.lifetime.start.p0(i64 64, ptr %23) #9
  %76 = load i32, ptr %13, align 4, !tbaa !23
  %77 = icmp slt i32 %76, 0
  %78 = zext i1 %77 to i8
  %79 = load ptr, ptr %12, align 8, !tbaa !33
  invoke void @_ZN6icu_7714ConstChar16PtrC2EPKDs(ptr noundef nonnull align 8 dereferenceable(8) %24, ptr noundef %79)
          to label %80 unwind label %94

80:                                               ; preds = %75
  %81 = load i32, ptr %13, align 4, !tbaa !23
  invoke void @_ZN6icu_7713UnicodeStringC1EaNS_14ConstChar16PtrEi(ptr noundef nonnull align 8 dereferenceable(64) %23, i8 noundef signext %78, ptr noundef %24, i32 noundef %81)
          to label %82 unwind label %98

82:                                               ; preds = %80
  call void @_ZN6icu_7714ConstChar16PtrD2Ev(ptr noundef nonnull align 8 dereferenceable(8) %24) #9
  call void @llvm.lifetime.start.p0(i64 8, ptr %25) #9
  store ptr null, ptr %25, align 8, !tbaa !42
  %83 = load i32, ptr %11, align 4, !tbaa !35
  %84 = load ptr, ptr %14, align 8, !tbaa !37
  %85 = load ptr, ptr %15, align 8, !tbaa !39
  %86 = invoke noundef ptr @_ZN6icu_7714Transliterator15createFromRulesERKNS_13UnicodeStringES3_15UTransDirectionR11UParseErrorR10UErrorCode(ptr noundef nonnull align 8 dereferenceable(64) %17, ptr noundef nonnull align 8 dereferenceable(64) %23, i32 noundef %83, ptr noundef nonnull align 4 dereferenceable(72) %84, ptr noundef nonnull align 4 dereferenceable(4) %85)
          to label %87 unwind label %102

87:                                               ; preds = %82
  store ptr %86, ptr %25, align 8, !tbaa !42
  %88 = load ptr, ptr %15, align 8, !tbaa !39
  %89 = load i32, ptr %88, align 4, !tbaa !40
  %90 = invoke noundef signext i8 @_ZL9U_FAILURE10UErrorCode(i32 noundef %89)
          to label %91 unwind label %102

91:                                               ; preds = %87
  %92 = icmp ne i8 %90, 0
  br i1 %92, label %93, label %106

93:                                               ; preds = %91
  store ptr null, ptr %8, align 8
  store i32 1, ptr %22, align 4
  br label %108

94:                                               ; preds = %75
  %95 = landingpad { ptr, i32 }
          cleanup
  %96 = extractvalue { ptr, i32 } %95, 0
  store ptr %96, ptr %19, align 8
  %97 = extractvalue { ptr, i32 } %95, 1
  store i32 %97, ptr %20, align 4
  br label %109

98:                                               ; preds = %80
  %99 = landingpad { ptr, i32 }
          cleanup
  %100 = extractvalue { ptr, i32 } %99, 0
  store ptr %100, ptr %19, align 8
  %101 = extractvalue { ptr, i32 } %99, 1
  store i32 %101, ptr %20, align 4
  call void @_ZN6icu_7714ConstChar16PtrD2Ev(ptr noundef nonnull align 8 dereferenceable(8) %24) #9
  br label %109

102:                                              ; preds = %87, %82
  %103 = landingpad { ptr, i32 }
          cleanup
  %104 = extractvalue { ptr, i32 } %103, 0
  store ptr %104, ptr %19, align 8
  %105 = extractvalue { ptr, i32 } %103, 1
  store i32 %105, ptr %20, align 4
  call void @llvm.lifetime.end.p0(i64 8, ptr %25) #9
  call void @_ZN6icu_7713UnicodeStringD1Ev(ptr noundef nonnull align 8 dereferenceable(64) %23) #9
  br label %109

106:                                              ; preds = %91
  %107 = load ptr, ptr %25, align 8, !tbaa !42
  store ptr %107, ptr %8, align 8
  store i32 1, ptr %22, align 4
  br label %108

108:                                              ; preds = %106, %93
  call void @llvm.lifetime.end.p0(i64 8, ptr %25) #9
  call void @_ZN6icu_7713UnicodeStringD1Ev(ptr noundef nonnull align 8 dereferenceable(64) %23) #9
  call void @llvm.lifetime.end.p0(i64 64, ptr %23) #9
  br label %110

109:                                              ; preds = %102, %98, %94
  call void @llvm.lifetime.end.p0(i64 64, ptr %23) #9
  br label %111

110:                                              ; preds = %108, %74
  call void @_ZN6icu_7713UnicodeStringD1Ev(ptr noundef nonnull align 8 dereferenceable(64) %17) #9
  call void @llvm.lifetime.end.p0(i64 64, ptr %17) #9
  call void @llvm.lifetime.end.p0(i64 72, ptr %16) #9
  br label %113

111:                                              ; preds = %109, %68
  call void @_ZN6icu_7713UnicodeStringD1Ev(ptr noundef nonnull align 8 dereferenceable(64) %17) #9
  br label %112

112:                                              ; preds = %111, %64
  call void @llvm.lifetime.end.p0(i64 64, ptr %17) #9
  call void @llvm.lifetime.end.p0(i64 72, ptr %16) #9
  br label %115

113:                                              ; preds = %110, %37, %33
  %114 = load ptr, ptr %8, align 8
  ret ptr %114

115:                                              ; preds = %112
  %116 = load ptr, ptr %19, align 8
  %117 = load i32, ptr %20, align 4
  %118 = insertvalue { ptr, i32 } poison, ptr %116, 0
  %119 = insertvalue { ptr, i32 } %118, i32 %117, 1
  resume { ptr, i32 } %119
}