; Function Attrs: mustprogress uwtable
define ptr @utrans_openU_77(ptr noundef %0, i32 noundef %1, i32 noundef %2, ptr noundef %3, i32 noundef %4, ptr noundef %5, ptr noundef %6) local_unnamed_addr #4 personality ptr @__gxx_personality_v0 {
  %8 = alloca %struct.UParseError, align 4
  %9 = alloca %"class.icu_77::UnicodeString", align 8
  %10 = alloca %"class.icu_77::ConstChar16Ptr", align 8
  %11 = alloca %"class.icu_77::UnicodeString", align 8
  %12 = alloca %"class.icu_77::ConstChar16Ptr", align 8
  %13 = icmp eq ptr %6, null
  br i1 %13, label %53, label %14

14:                                               ; preds = %7
  %15 = load i32, ptr %6, align 4, !tbaa !23
  %16 = icmp slt i32 %15, 1
  br i1 %16, label %17, label %53

17:                                               ; preds = %14
  %18 = icmp eq ptr %0, null
  br i1 %18, label %19, label %20

19:                                               ; preds = %17
  store i32 1, ptr %6, align 4, !tbaa !23
  br label %53

20:                                               ; preds = %17
  call void @llvm.lifetime.start.p0(i64 72, ptr nonnull %8) #10
  %21 = icmp eq ptr %5, null
  %spec.store.select = select i1 %21, ptr %8, ptr %5
  call void @llvm.lifetime.start.p0(i64 64, ptr nonnull %9) #10
  %.lobit = lshr i32 %1, 31
  %22 = trunc nuw nsw i32 %.lobit to i8
  store ptr %0, ptr %10, align 8, !tbaa !25
  invoke void @_ZN6icu_7713UnicodeStringC1EaNS_14ConstChar16PtrEi(ptr noundef nonnull align 8 dereferenceable(64) %9, i8 noundef signext %22, ptr noundef nonnull %10, i32 noundef %1)
          to label %23 unwind label %31

23:                                               ; preds = %20
  %24 = load ptr, ptr %10, align 8, !tbaa !25
  call void asm sideeffect "", "rm,~{memory},~{dirflag},~{fpsr},~{flags}"(ptr %24) #10, !srcloc !28
  %25 = icmp eq ptr %3, null
  br i1 %25, label %26, label %36

26:                                               ; preds = %23
  %27 = invoke noundef ptr @_ZN6icu_7714Transliterator14createInstanceERKNS_13UnicodeStringE15UTransDirectionR11UParseErrorR10UErrorCode(ptr noundef nonnull align 8 dereferenceable(64) %9, i32 noundef %2, ptr noundef nonnull align 4 dereferenceable(72) %spec.store.select, ptr noundef nonnull align 4 dereferenceable(4) %6)
          to label %28 unwind label %34

28:                                               ; preds = %26
  %29 = load i32, ptr %6, align 4, !tbaa !23
  %30 = icmp slt i32 %29, 1
  %. = select i1 %30, ptr %27, ptr null
  br label %50

31:                                               ; preds = %20
  %32 = landingpad { ptr, i32 }
          cleanup
  %33 = load ptr, ptr %10, align 8, !tbaa !25
  call void asm sideeffect "", "rm,~{memory},~{dirflag},~{fpsr},~{flags}"(ptr %33) #10, !srcloc !28
  br label %52

34:                                               ; preds = %26
  %35 = landingpad { ptr, i32 }
          cleanup
  br label %51

36:                                               ; preds = %23
  call void @llvm.lifetime.start.p0(i64 64, ptr nonnull %11) #10
  %.lobit33 = lshr i32 %4, 31
  %37 = trunc nuw nsw i32 %.lobit33 to i8
  store ptr %3, ptr %12, align 8, !tbaa !25
  invoke void @_ZN6icu_7713UnicodeStringC1EaNS_14ConstChar16PtrEi(ptr noundef nonnull align 8 dereferenceable(64) %11, i8 noundef signext %37, ptr noundef nonnull %12, i32 noundef %4)
          to label %38 unwind label %44

38:                                               ; preds = %36
  %39 = load ptr, ptr %12, align 8, !tbaa !25
  call void asm sideeffect "", "rm,~{memory},~{dirflag},~{fpsr},~{flags}"(ptr %39) #10, !srcloc !28
  %40 = invoke noundef ptr @_ZN6icu_7714Transliterator15createFromRulesERKNS_13UnicodeStringES3_15UTransDirectionR11UParseErrorR10UErrorCode(ptr noundef nonnull align 8 dereferenceable(64) %9, ptr noundef nonnull align 8 dereferenceable(64) %11, i32 noundef %2, ptr noundef nonnull align 4 dereferenceable(72) %spec.store.select, ptr noundef nonnull align 4 dereferenceable(4) %6)
          to label %41 unwind label %47

41:                                               ; preds = %38
  %42 = load i32, ptr %6, align 4, !tbaa !23
  %43 = icmp slt i32 %42, 1
  %.40 = select i1 %43, ptr %40, ptr null
  call void @_ZN6icu_7713UnicodeStringD1Ev(ptr noundef nonnull align 8 dereferenceable(64) %11) #10
  call void @llvm.lifetime.end.p0(i64 64, ptr nonnull %11) #10
  br label %50

44:                                               ; preds = %36
  %45 = landingpad { ptr, i32 }
          cleanup
  %46 = load ptr, ptr %12, align 8, !tbaa !25
  call void asm sideeffect "", "rm,~{memory},~{dirflag},~{fpsr},~{flags}"(ptr %46) #10, !srcloc !28
  br label %49

47:                                               ; preds = %38
  %48 = landingpad { ptr, i32 }
          cleanup
  call void @_ZN6icu_7713UnicodeStringD1Ev(ptr noundef nonnull align 8 dereferenceable(64) %11) #10
  br label %49

49:                                               ; preds = %47, %44
  %.pn = phi { ptr, i32 } [ %48, %47 ], [ %45, %44 ]
  call void @llvm.lifetime.end.p0(i64 64, ptr nonnull %11) #10
  br label %51

50:                                               ; preds = %41, %28
  %.229 = phi ptr [ %., %28 ], [ %.40, %41 ]
  call void @_ZN6icu_7713UnicodeStringD1Ev(ptr noundef nonnull align 8 dereferenceable(64) %9) #10
  call void @llvm.lifetime.end.p0(i64 64, ptr nonnull %9) #10
  call void @llvm.lifetime.end.p0(i64 72, ptr nonnull %8) #10
  br label %53

51:                                               ; preds = %49, %34
  %.pn36 = phi { ptr, i32 } [ %35, %34 ], [ %.pn, %49 ]
  call void @_ZN6icu_7713UnicodeStringD1Ev(ptr noundef nonnull align 8 dereferenceable(64) %9) #10
  br label %52

52:                                               ; preds = %51, %31
  %.pn36.pn = phi { ptr, i32 } [ %.pn36, %51 ], [ %32, %31 ]
  call void @llvm.lifetime.end.p0(i64 64, ptr nonnull %9) #10
  call void @llvm.lifetime.end.p0(i64 72, ptr nonnull %8) #10
  resume { ptr, i32 } %.pn36.pn

53:                                               ; preds = %7, %14, %50, %19
  %.027 = phi ptr [ null, %19 ], [ %.229, %50 ], [ null, %14 ], [ null, %7 ]
  ret ptr %.027
}